; ModuleID = '22/584.c'
source_filename = "22/584.c"
target datalayout = "e-m:e-p270:32:32-p271:32:32-p272:64:64-i64:64-f80:128-n8:16:32:64-S128"
target triple = "x86_64-pc-linux-gnu"

@.str = private unnamed_addr constant [3 x i8] c"%d\00", align 1
@.str.1 = private unnamed_addr constant [3 x i8] c"No\00", align 1

; Function Attrs: noinline nounwind uwtable
define dso_local i32 @main() #0 {
  %1 = alloca i32, align 4
  %2 = alloca [300 x i32], align 16
  %3 = alloca i32, align 4
  %4 = alloca i32, align 4
  %5 = alloca i32, align 4
  %6 = alloca i32, align 4
  %7 = alloca i32, align 4
  %8 = alloca i8, align 1
  store i32 0, i32* %1, align 4
  store i32 1, i32* %3, align 4
  store i32 0, i32* %7, align 4
  %9 = getelementptr inbounds [300 x i32], [300 x i32]* %2, i64 0, i64 0
  %10 = call i32 (i8*, ...) @__isoc99_scanf(i8* getelementptr inbounds ([3 x i8], [3 x i8]* @.str, i64 0, i64 0), i32* %9)
  %11 = call i32 @getchar()
  %12 = trunc i32 %11 to i8
  store i8 %12, i8* %8, align 1
  br label %13

13:                                               ; preds = %17, %0
  %14 = load i8, i8* %8, align 1
  %15 = sext i8 %14 to i32
  %16 = icmp eq i32 %15, 44
  br i1 %16, label %17, label %26

17:                                               ; preds = %13
  %18 = load i32, i32* %3, align 4
  %19 = sext i32 %18 to i64
  %20 = getelementptr inbounds [300 x i32], [300 x i32]* %2, i64 0, i64 %19
  %21 = call i32 (i8*, ...) @__isoc99_scanf(i8* getelementptr inbounds ([3 x i8], [3 x i8]* @.str, i64 0, i64 0), i32* %20)
  %22 = load i32, i32* %3, align 4
  %23 = add nsw i32 %22, 1
  store i32 %23, i32* %3, align 4
  %24 = call i32 @getchar()
  %25 = trunc i32 %24 to i8
  store i8 %25, i8* %8, align 1
  br label %13

26:                                               ; preds = %13
  store i32 0, i32* %4, align 4
  br label %27

27:                                               ; preds = %74, %26
  %28 = load i32, i32* %4, align 4
  %29 = load i32, i32* %3, align 4
  %30 = sub nsw i32 %29, 1
  %31 = icmp slt i32 %28, %30
  br i1 %31, label %32, label %77

32:                                               ; preds = %27
  store i32 0, i32* %5, align 4
  br label %33

33:                                               ; preds = %70, %32
  %34 = load i32, i32* %5, align 4
  %35 = load i32, i32* %3, align 4
  %36 = sub nsw i32 %35, 1
  %37 = load i32, i32* %4, align 4
  %38 = sub nsw i32 %36, %37
  %39 = icmp slt i32 %34, %38
  br i1 %39, label %40, label %73

40:                                               ; preds = %33
  %41 = load i32, i32* %5, align 4
  %42 = sext i32 %41 to i64
  %43 = getelementptr inbounds [300 x i32], [300 x i32]* %2, i64 0, i64 %42
  %44 = load i32, i32* %43, align 4
  %45 = load i32, i32* %5, align 4
  %46 = add nsw i32 %45, 1
  %47 = sext i32 %46 to i64
  %48 = getelementptr inbounds [300 x i32], [300 x i32]* %2, i64 0, i64 %47
  %49 = load i32, i32* %48, align 4
  %50 = icmp slt i32 %44, %49
  br i1 %50, label %51, label %69

51:                                               ; preds = %40
  %52 = load i32, i32* %5, align 4
  %53 = sext i32 %52 to i64
  %54 = getelementptr inbounds [300 x i32], [300 x i32]* %2, i64 0, i64 %53
  %55 = load i32, i32* %54, align 4
  store i32 %55, i32* %6, align 4
  %56 = load i32, i32* %5, align 4
  %57 = add nsw i32 %56, 1
  %58 = sext i32 %57 to i64
  %59 = getelementptr inbounds [300 x i32], [300 x i32]* %2, i64 0, i64 %58
  %60 = load i32, i32* %59, align 4
  %61 = load i32, i32* %5, align 4
  %62 = sext i32 %61 to i64
  %63 = getelementptr inbounds [300 x i32], [300 x i32]* %2, i64 0, i64 %62
  store i32 %60, i32* %63, align 4
  %64 = load i32, i32* %6, align 4
  %65 = load i32, i32* %5, align 4
  %66 = add nsw i32 %65, 1
  %67 = sext i32 %66 to i64
  %68 = getelementptr inbounds [300 x i32], [300 x i32]* %2, i64 0, i64 %67
  store i32 %64, i32* %68, align 4
  br label %69

69:                                               ; preds = %51, %40
  br label %70

70:                                               ; preds = %69
  %71 = load i32, i32* %5, align 4
  %72 = add nsw i32 %71, 1
  store i32 %72, i32* %5, align 4
  br label %33

73:                                               ; preds = %33
  br label %74

74:                                               ; preds = %73
  %75 = load i32, i32* %4, align 4
  %76 = add nsw i32 %75, 1
  store i32 %76, i32* %4, align 4
  br label %27

77:                                               ; preds = %27
  store i32 0, i32* %4, align 4
  br label %78

78:                                               ; preds = %96, %77
  %79 = load i32, i32* %4, align 4
  %80 = load i32, i32* %3, align 4
  %81 = icmp slt i32 %79, %80
  br i1 %81, label %82, label %99

82:                                               ; preds = %78
  %83 = load i32, i32* %4, align 4
  %84 = sext i32 %83 to i64
  %85 = getelementptr inbounds [300 x i32], [300 x i32]* %2, i64 0, i64 %84
  %86 = load i32, i32* %85, align 4
  %87 = getelementptr inbounds [300 x i32], [300 x i32]* %2, i64 0, i64 0
  %88 = load i32, i32* %87, align 16
  %89 = icmp slt i32 %86, %88
  br i1 %89, label %90, label %91

90:                                               ; preds = %82
  store i32 1, i32* %7, align 4
  br label %91

91:                                               ; preds = %90, %82
  %92 = load i32, i32* %7, align 4
  %93 = icmp eq i32 %92, 1
  br i1 %93, label %94, label %95

94:                                               ; preds = %91
  br label %99

95:                                               ; preds = %91
  br label %96

96:                                               ; preds = %95
  %97 = load i32, i32* %4, align 4
  %98 = add nsw i32 %97, 1
  store i32 %98, i32* %4, align 4
  br label %78

99:                                               ; preds = %94, %78
  %100 = load i32, i32* %7, align 4
  %101 = icmp eq i32 %100, 1
  br i1 %101, label %102, label %108

102:                                              ; preds = %99
  %103 = load i32, i32* %4, align 4
  %104 = sext i32 %103 to i64
  %105 = getelementptr inbounds [300 x i32], [300 x i32]* %2, i64 0, i64 %104
  %106 = load i32, i32* %105, align 4
  %107 = call i32 (i8*, ...) @printf(i8* getelementptr inbounds ([3 x i8], [3 x i8]* @.str, i64 0, i64 0), i32 %106)
  br label %110

108:                                              ; preds = %99
  %109 = call i32 (i8*, ...) @printf(i8* getelementptr inbounds ([3 x i8], [3 x i8]* @.str.1, i64 0, i64 0))
  br label %110

110:                                              ; preds = %108, %102
  ret i32 0
}

declare dso_local i32 @__isoc99_scanf(i8*, ...) #1

declare dso_local i32 @getchar() #1

declare dso_local i32 @printf(i8*, ...) #1


!llvm.module.flags = !{!0}
!llvm.ident = !{!1}

!0 = !{i32 1, !"wchar_size", i32 4}
!1 = !{!"clang version 10.0.0-4ubuntu1 "}
